target datalayout = "e-m:e-p270:32:32-p271:32:32-p272:64:64-i64:64-i128:128-f80:128-n8:16:32:64-S128"
target triple = "x86_64-unknown-linux-gnu"

%"class.EA::EAMain::PrintManager" = type { [3 x ptr] }

; Function Attrs: mustprogress uwtable
define dso_local void @_ZN2EA6EAMain12PrintManager4SendEPKc(ptr noundef nonnull align 8 dereferenceable(24) %this, ptr noundef %pData) #4 align 2 {
entry:
  %this.addr = alloca ptr, align 8
  %pData.addr = alloca ptr, align 8
  %i = alloca i32, align 4
  store ptr %this, ptr %this.addr, align 8
  store ptr %pData, ptr %pData.addr, align 8
  %this1 = load ptr, ptr %this.addr, align 8
  store i32 0, ptr %i, align 4
  br label %for.cond

for.cond:                                         ; preds = %for.inc, %entry
  %0 = load i32, ptr %i, align 4
  %cmp = icmp slt i32 %0, 3
  br i1 %cmp, label %for.body, label %for.end

for.body:                                         ; preds = %for.cond
  %m_Channels = getelementptr inbounds %"class.EA::EAMain::PrintManager", ptr %this1, i32 0, i32 0
  %1 = load i32, ptr %i, align 4
  %idxprom = sext i32 %1 to i64
  %arrayidx = getelementptr inbounds [3 x ptr], ptr %m_Channels, i64 0, i64 %idxprom
  %2 = load ptr, ptr %arrayidx, align 8
  %tobool = icmp ne ptr %2, null
  br i1 %tobool, label %if.then, label %if.end

if.then:                                          ; preds = %for.body
  %m_Channels2 = getelementptr inbounds %"class.EA::EAMain::PrintManager", ptr %this1, i32 0, i32 0
  %3 = load i32, ptr %i, align 4
  %idxprom3 = sext i32 %3 to i64
  %arrayidx4 = getelementptr inbounds [3 x ptr], ptr %m_Channels2, i64 0, i64 %idxprom3
  %4 = load ptr, ptr %arrayidx4, align 8
  %5 = load ptr, ptr %pData.addr, align 8
  %vtable = load ptr, ptr %4, align 8
  %vfn = getelementptr inbounds ptr, ptr %vtable, i64 3
  %6 = load ptr, ptr %vfn, align 8
  call void %6(ptr noundef nonnull align 8 dereferenceable(8) %4, ptr noundef %5)
  br label %if.end

if.end:                                           ; preds = %if.then, %for.body
  br label %for.inc

for.inc:                                          ; preds = %if.end
  %7 = load i32, ptr %i, align 4
  %inc = add nsw i32 %7, 1
  store i32 %inc, ptr %i, align 4
  br label %for.cond, !llvm.loop !5

for.end:                                          ; preds = %for.cond
  ret void
}